; ModuleID = 'source-C-CXX/31/2223.c'
source_filename = "source-C-CXX/31/2223.c"
target datalayout = "e-m:e-p270:32:32-p271:32:32-p272:64:64-i64:64-f80:128-n8:16:32:64-S128"
target triple = "x86_64-pc-linux-gnu"

@.str = private unnamed_addr constant [4 x i8] c"%d\0A\00", align 1
@.str.1 = private unnamed_addr constant [4 x i8] c"%s\0A\00", align 1
@.str.2 = private unnamed_addr constant [3 x i8] c"%s\00", align 1

; Function Attrs: nofree norecurse nosync nounwind sspstrong uwtable writeonly
define dso_local void @func2(i8* nocapture %0, i32 %1) local_unnamed_addr #0 {
  %3 = icmp sgt i32 %1, 0
  br i1 %3, label %4, label %6

4:                                                ; preds = %2
  %5 = zext i32 %1 to i64
  call void @llvm.memset.p0i8.i64(i8* align 1 %0, i8 0, i64 %5, i1 false)
  br label %6

6:                                                ; preds = %4, %2
  ret void
}

; Function Attrs: argmemonly mustprogress nofree nosync nounwind willreturn
declare void @llvm.lifetime.start.p0i8(i64 immarg, i8* nocapture) #1

; Function Attrs: argmemonly mustprogress nofree nosync nounwind willreturn
declare void @llvm.lifetime.end.p0i8(i64 immarg, i8* nocapture) #1

; Function Attrs: nofree nounwind sspstrong uwtable
define dso_local i32 @main() local_unnamed_addr #2 {
  %1 = alloca [100 x i8], align 16
  %2 = alloca [100 x i8], align 16
  %3 = alloca [100 x i8], align 16
  %4 = getelementptr inbounds [100 x i8], [100 x i8]* %3, i64 0, i64 0
  %5 = alloca [100 x [100 x i8]], align 16
  %6 = alloca i32, align 4
  %7 = getelementptr inbounds [100 x i8], [100 x i8]* %1, i64 0, i64 0
  call void @llvm.lifetime.start.p0i8(i64 100, i8* nonnull %7) #8
  call void @llvm.memset.p0i8.i64(i8* noundef nonnull align 16 dereferenceable(100) %7, i8 0, i64 100, i1 false)
  %8 = getelementptr inbounds [100 x i8], [100 x i8]* %2, i64 0, i64 0
  call void @llvm.lifetime.start.p0i8(i64 100, i8* nonnull %8) #8
  call void @llvm.memset.p0i8.i64(i8* noundef nonnull align 16 dereferenceable(100) %8, i8 0, i64 100, i1 false)
  %9 = getelementptr inbounds [100 x i8], [100 x i8]* %3, i64 0, i64 0
  call void @llvm.lifetime.start.p0i8(i64 100, i8* nonnull %9) #8
  call void @llvm.memset.p0i8.i64(i8* noundef nonnull align 16 dereferenceable(100) %9, i8 0, i64 100, i1 false)
  %10 = getelementptr inbounds [100 x [100 x i8]], [100 x [100 x i8]]* %5, i64 0, i64 0, i64 0
  call void @llvm.lifetime.start.p0i8(i64 10000, i8* nonnull %10) #8
  call void @llvm.memset.p0i8.i64(i8* noundef nonnull align 16 dereferenceable(10000) %10, i8 0, i64 10000, i1 false)
  %11 = bitcast i32* %6 to i8*
  call void @llvm.lifetime.start.p0i8(i64 4, i8* nonnull %11) #8
  %12 = call i32 (i8*, ...) @__isoc99_scanf(i8* getelementptr inbounds ([4 x i8], [4 x i8]* @.str, i64 0, i64 0), i32* nonnull %6)
  %13 = load i32, i32* %6, align 4, !tbaa !5
  %14 = icmp sgt i32 %13, 0
  br i1 %14, label %17, label %88

15:                                               ; preds = %74
  %16 = icmp sgt i32 %77, 0
  br i1 %16, label %80, label %88

17:                                               ; preds = %0, %74
  %18 = phi i64 [ %76, %74 ], [ 0, %0 ]
  %19 = phi i32 [ %75, %74 ], [ 0, %0 ]
  %20 = call i32 (i8*, ...) @__isoc99_scanf(i8* getelementptr inbounds ([4 x i8], [4 x i8]* @.str.1, i64 0, i64 0), i8* nonnull %7)
  %21 = call i32 (i8*, ...) @__isoc99_scanf(i8* getelementptr inbounds ([3 x i8], [3 x i8]* @.str.2, i64 0, i64 0), i8* nonnull %8)
  %22 = call i64 @strlen(i8* noundef nonnull %7) #9
  %23 = trunc i64 %22 to i32
  %24 = call i64 @strlen(i8* noundef nonnull %8) #9
  %25 = trunc i64 %24 to i32
  %26 = icmp sgt i32 %23, %25
  br i1 %26, label %27, label %32

27:                                               ; preds = %17
  %28 = xor i64 %24, -1
  %29 = add i64 %22, %28
  %30 = and i64 %29, 4294967295
  %31 = add nuw nsw i64 %30, 1
  call void @llvm.memset.p0i8.i64(i8* noundef nonnull align 16 %4, i8 48, i64 %31, i1 false)
  br label %32

32:                                               ; preds = %27, %17
  %33 = call i8* @strcat(i8* noundef nonnull %9, i8* noundef nonnull %8) #8
  %34 = icmp sgt i32 %23, 0
  br i1 %34, label %35, label %74

35:                                               ; preds = %32
  %36 = and i64 %22, 4294967295
  br label %40

37:                                               ; preds = %40
  br i1 %34, label %38, label %74

38:                                               ; preds = %37
  %39 = and i64 %22, 4294967295
  br label %63

40:                                               ; preds = %35, %40
  %41 = phi i64 [ %36, %35 ], [ %62, %40 ]
  %42 = phi i32 [ %23, %35 ], [ %44, %40 ]
  %43 = phi i32 [ %19, %35 ], [ %57, %40 ]
  %44 = add nsw i32 %42, -1
  %45 = zext i32 %44 to i64
  %46 = getelementptr inbounds [100 x i8], [100 x i8]* %1, i64 0, i64 %45
  %47 = load i8, i8* %46, align 1, !tbaa !9
  %48 = sext i8 %47 to i32
  %49 = getelementptr inbounds [100 x i8], [100 x i8]* %3, i64 0, i64 %45
  %50 = load i8, i8* %49, align 1, !tbaa !9
  %51 = sext i8 %50 to i32
  %52 = sub nsw i32 %48, %51
  %53 = add nsw i32 %52, %43
  %54 = icmp slt i32 %53, 0
  %55 = add nsw i32 %53, 10
  %56 = select i1 %54, i32 %55, i32 %53
  %57 = ashr i32 %53, 31
  %58 = trunc i32 %56 to i8
  %59 = add i8 %58, 48
  %60 = getelementptr inbounds [100 x [100 x i8]], [100 x [100 x i8]]* %5, i64 0, i64 %18, i64 %45
  store i8 %59, i8* %60, align 1, !tbaa !9
  %61 = icmp sgt i64 %41, 1
  %62 = add nsw i64 %41, -1
  br i1 %61, label %40, label %37, !llvm.loop !10

63:                                               ; preds = %38, %68
  %64 = phi i64 [ 0, %38 ], [ %69, %68 ]
  %65 = getelementptr inbounds [100 x [100 x i8]], [100 x [100 x i8]]* %5, i64 0, i64 %18, i64 %64
  %66 = load i8, i8* %65, align 1, !tbaa !9
  %67 = icmp eq i8 %66, 48
  br i1 %67, label %68, label %71

68:                                               ; preds = %63
  store i8 0, i8* %65, align 1, !tbaa !9
  %69 = add nuw nsw i64 %64, 1
  %70 = icmp eq i64 %69, %39
  br i1 %70, label %71, label %63, !llvm.loop !12

71:                                               ; preds = %68, %63
  br i1 %34, label %72, label %74

72:                                               ; preds = %71
  %73 = and i64 %22, 4294967295
  call void @llvm.memset.p0i8.i64(i8* nonnull align 16 %7, i8 0, i64 %73, i1 false) #8
  call void @llvm.memset.p0i8.i64(i8* nonnull align 16 %8, i8 0, i64 %73, i1 false) #8
  call void @llvm.memset.p0i8.i64(i8* nonnull align 16 %9, i8 0, i64 %73, i1 false) #8
  br label %74

74:                                               ; preds = %32, %37, %71, %72
  %75 = phi i32 [ %57, %71 ], [ %57, %72 ], [ %57, %37 ], [ %19, %32 ]
  %76 = add nuw nsw i64 %18, 1
  %77 = load i32, i32* %6, align 4, !tbaa !5
  %78 = sext i32 %77 to i64
  %79 = icmp slt i64 %76, %78
  br i1 %79, label %17, label %15, !llvm.loop !13

80:                                               ; preds = %15, %80
  %81 = phi i64 [ %84, %80 ], [ 0, %15 ]
  %82 = getelementptr inbounds [100 x [100 x i8]], [100 x [100 x i8]]* %5, i64 0, i64 %81, i64 0
  %83 = call i32 @puts(i8* nonnull %82)
  %84 = add nuw nsw i64 %81, 1
  %85 = load i32, i32* %6, align 4, !tbaa !5
  %86 = sext i32 %85 to i64
  %87 = icmp slt i64 %84, %86
  br i1 %87, label %80, label %88, !llvm.loop !14

88:                                               ; preds = %80, %0, %15
  call void @llvm.lifetime.end.p0i8(i64 4, i8* nonnull %11) #8
  call void @llvm.lifetime.end.p0i8(i64 10000, i8* nonnull %10) #8
  call void @llvm.lifetime.end.p0i8(i64 100, i8* nonnull %9) #8
  call void @llvm.lifetime.end.p0i8(i64 100, i8* nonnull %8) #8
  call void @llvm.lifetime.end.p0i8(i64 100, i8* nonnull %7) #8
  ret i32 0
}

; Function Attrs: argmemonly mustprogress nofree nounwind willreturn writeonly
declare void @llvm.memset.p0i8.i64(i8* nocapture writeonly, i8, i64, i1 immarg) #3

; Function Attrs: nofree nounwind
declare noundef i32 @__isoc99_scanf(i8* nocapture noundef readonly, ...) local_unnamed_addr #4

; Function Attrs: argmemonly mustprogress nofree nounwind readonly willreturn
declare i64 @strlen(i8* nocapture) local_unnamed_addr #5

; Function Attrs: argmemonly mustprogress nofree nounwind willreturn
declare i8* @strcat(i8* noalias returned, i8* noalias nocapture readonly) local_unnamed_addr #6

; Function Attrs: nofree nounwind
declare noundef i32 @puts(i8* nocapture noundef readonly) local_unnamed_addr #7


!llvm.module.flags = !{!0, !1, !2, !3}
!llvm.ident = !{!4}

!0 = !{i32 1, !"wchar_size", i32 4}
!1 = !{i32 7, !"PIC Level", i32 2}
!2 = !{i32 7, !"PIE Level", i32 2}
!3 = !{i32 7, !"uwtable", i32 1}
!4 = !{!"clang version 13.0.0"}
!5 = !{!6, !6, i64 0}
!6 = !{!"int", !7, i64 0}
!7 = !{!"omnipotent char", !8, i64 0}
!8 = !{!"Simple C/C++ TBAA"}
!9 = !{!7, !7, i64 0}
!10 = distinct !{!10, !11}
!11 = !{!"llvm.loop.mustprogress"}
!12 = distinct !{!12, !11}
!13 = distinct !{!13, !11}
!14 = distinct !{!14, !11}
